; Function Attrs: mustprogress uwtable
define noundef range(i64 0, -1) i64 @_ZN4base13RandGeneratorEm(i64 noundef %0) local_unnamed_addr #0 personality ptr @__gxx_personality_v0 {
  %2 = urem i64 -1, %0
  %3 = sub nuw i64 -2, %2
  br label %4

4:                                                ; preds = %4, %1
  %5 = tail call noundef i64 @_ZN4base10RandUint64Ev()
  %6 = icmp ugt i64 %5, %3
  br i1 %6, label %4, label %7, !llvm.loop !3

7:                                                ; preds = %4
  %8 = urem i64 %5, %0
  ret i64 %8
}